target datalayout = "e-m:e-p270:32:32-p271:32:32-p272:64:64-i64:64-i128:128-f80:128-n8:16:32:64-S128"
target triple = "x86_64-pc-linux-gnu"

%"struct.Luau::CodeGen::X64::RegisterX64" = type { i8 }
%"struct.Luau::CodeGen::X64::OperandX64" = type { i8, %"struct.Luau::CodeGen::X64::RegisterX64", %"struct.Luau::CodeGen::X64::RegisterX64", i8, i32 }
%"struct.Luau::CodeGen::Label" = type { i32, i32 }
%class.anon.403 = type { i8 }

@_ZN4Luau7CodeGen3X64L5noregE = internal constant %"struct.Luau::CodeGen::X64::RegisterX64" { i8 -128 }, align 1
@_ZN4Luau7CodeGen3X64L3rsiE = internal constant %"struct.Luau::CodeGen::X64::RegisterX64" { i8 52 }, align 1
@_ZN4Luau7CodeGen3X64L3rdiE = internal constant %"struct.Luau::CodeGen::X64::RegisterX64" { i8 60 }, align 1

; Function Attrs: mustprogress nounwind uwtable
define linkonce_odr dso_local void @_ZN4Luau7CodeGen3X6410OperandX64C2Ei(ptr noundef nonnull align 4 dereferenceable(8) %0, i32 noundef %1) unnamed_addr #1 comdat align 2 {
  %3 = alloca ptr, align 8
  %4 = alloca i32, align 4
  store ptr %0, ptr %3, align 8
  store i32 %1, ptr %4, align 4
  %5 = load ptr, ptr %3, align 8
  %6 = getelementptr inbounds %"struct.Luau::CodeGen::X64::OperandX64", ptr %5, i32 0, i32 0
  store i8 2, ptr %6, align 4
  %7 = getelementptr inbounds %"struct.Luau::CodeGen::X64::OperandX64", ptr %5, i32 0, i32 1
  call void @llvm.memcpy.p0.p0.i64(ptr align 1 %7, ptr align 1 @_ZN4Luau7CodeGen3X64L5noregE, i64 1, i1 false)
  %8 = getelementptr inbounds %"struct.Luau::CodeGen::X64::OperandX64", ptr %5, i32 0, i32 2
  call void @llvm.memcpy.p0.p0.i64(ptr align 2 %8, ptr align 1 @_ZN4Luau7CodeGen3X64L5noregE, i64 1, i1 false)
  %9 = getelementptr inbounds %"struct.Luau::CodeGen::X64::OperandX64", ptr %5, i32 0, i32 3
  %10 = load i8, ptr %9, align 1
  %11 = and i8 %10, -16
  %12 = or i8 %11, 0
  store i8 %12, ptr %9, align 1
  %13 = getelementptr inbounds %"struct.Luau::CodeGen::X64::OperandX64", ptr %5, i32 0, i32 3
  %14 = load i8, ptr %13, align 1
  %15 = and i8 %14, 15
  %16 = or i8 %15, 16
  store i8 %16, ptr %13, align 1
  %17 = getelementptr inbounds %"struct.Luau::CodeGen::X64::OperandX64", ptr %5, i32 0, i32 4
  %18 = load i32, ptr %4, align 4
  store i32 %18, ptr %17, align 4
  ret void
}

; Function Attrs: mustprogress nounwind uwtable
define linkonce_odr dso_local void @_ZN4Luau7CodeGen3X6410OperandX64C2ENS1_11RegisterX64E(ptr noundef nonnull align 4 dereferenceable(8) %0, i8 %1) unnamed_addr #1 comdat align 2 {
  %3 = alloca %"struct.Luau::CodeGen::X64::RegisterX64", align 1
  %4 = alloca ptr, align 8
  %5 = getelementptr inbounds %"struct.Luau::CodeGen::X64::RegisterX64", ptr %3, i32 0, i32 0
  store i8 %1, ptr %5, align 1
  store ptr %0, ptr %4, align 8
  %6 = load ptr, ptr %4, align 8
  %7 = getelementptr inbounds %"struct.Luau::CodeGen::X64::OperandX64", ptr %6, i32 0, i32 0
  store i8 0, ptr %7, align 4
  %8 = getelementptr inbounds %"struct.Luau::CodeGen::X64::OperandX64", ptr %6, i32 0, i32 1
  call void @llvm.memcpy.p0.p0.i64(ptr align 1 %8, ptr align 1 @_ZN4Luau7CodeGen3X64L5noregE, i64 1, i1 false)
  %9 = getelementptr inbounds %"struct.Luau::CodeGen::X64::OperandX64", ptr %6, i32 0, i32 2
  call void @llvm.memcpy.p0.p0.i64(ptr align 2 %9, ptr align 1 %3, i64 1, i1 false)
  %10 = getelementptr inbounds %"struct.Luau::CodeGen::X64::OperandX64", ptr %6, i32 0, i32 3
  %11 = load i8, ptr %10, align 1
  %12 = and i8 %11, -16
  %13 = or i8 %12, 0
  store i8 %13, ptr %10, align 1
  %14 = getelementptr inbounds %"struct.Luau::CodeGen::X64::OperandX64", ptr %6, i32 0, i32 3
  %15 = load i8, ptr %14, align 1
  %16 = and i8 %15, 15
  %17 = or i8 %16, 16
  store i8 %17, ptr %14, align 1
  %18 = getelementptr inbounds %"struct.Luau::CodeGen::X64::OperandX64", ptr %6, i32 0, i32 4
  store i32 0, ptr %18, align 4
  ret void
}

; Function Attrs: mustprogress uwtable
define internal void @_ZZN12_GLOBAL__N_121DOCTEST_ANON_CLASS_451fEvENKUlRN4Luau7CodeGen3X6418AssemblyBuilderX64EE_clES5_(ptr noundef nonnull align 1 dereferenceable(1) %0, ptr noundef nonnull align 8 dereferenceable(252) %1) #4 align 2 {
  %3 = alloca ptr, align 8
  %4 = alloca ptr, align 8
  %5 = alloca %"struct.Luau::CodeGen::Label", align 4
  %6 = alloca %"struct.Luau::CodeGen::X64::OperandX64", align 4
  %7 = alloca %"struct.Luau::CodeGen::X64::RegisterX64", align 1
  %8 = alloca %"struct.Luau::CodeGen::X64::OperandX64", align 4
  %9 = alloca %"struct.Luau::CodeGen::X64::OperandX64", align 4
  %10 = alloca %"struct.Luau::CodeGen::X64::RegisterX64", align 1
  %11 = alloca %"struct.Luau::CodeGen::X64::OperandX64", align 4
  %12 = alloca %"struct.Luau::CodeGen::X64::RegisterX64", align 1
  store ptr %0, ptr %3, align 8
  store ptr %1, ptr %4, align 8
  %13 = load ptr, ptr %4, align 8
  %14 = call i64 @_ZN4Luau7CodeGen3X6418AssemblyBuilderX648setLabelEv(ptr noundef nonnull align 8 dereferenceable(252) %13)
  store i64 %14, ptr %5, align 4
  %15 = load ptr, ptr %4, align 8
  call void @llvm.memcpy.p0.p0.i64(ptr align 1 %7, ptr align 1 @_ZN4Luau7CodeGen3X64L3rsiE, i64 1, i1 false)
  %16 = getelementptr inbounds %"struct.Luau::CodeGen::X64::RegisterX64", ptr %7, i32 0, i32 0
  %17 = load i8, ptr %16, align 1
  call void @_ZN4Luau7CodeGen3X6410OperandX64C2ENS1_11RegisterX64E(ptr noundef nonnull align 4 dereferenceable(8) %6, i8 %17)
  call void @_ZN4Luau7CodeGen3X6410OperandX64C2Ei(ptr noundef nonnull align 4 dereferenceable(8) %8, i32 noundef 1)
  %18 = load i64, ptr %6, align 4
  %19 = load i64, ptr %8, align 4
  call void @_ZN4Luau7CodeGen3X6418AssemblyBuilderX643addENS1_10OperandX64ES3_(ptr noundef nonnull align 8 dereferenceable(252) %15, i64 %18, i64 %19)
  %20 = load ptr, ptr %4, align 8
  call void @llvm.memcpy.p0.p0.i64(ptr align 1 %10, ptr align 1 @_ZN4Luau7CodeGen3X64L3rsiE, i64 1, i1 false)
  %21 = getelementptr inbounds %"struct.Luau::CodeGen::X64::RegisterX64", ptr %10, i32 0, i32 0
  %22 = load i8, ptr %21, align 1
  call void @_ZN4Luau7CodeGen3X6410OperandX64C2ENS1_11RegisterX64E(ptr noundef nonnull align 4 dereferenceable(8) %9, i8 %22)
  call void @llvm.memcpy.p0.p0.i64(ptr align 1 %12, ptr align 1 @_ZN4Luau7CodeGen3X64L3rdiE, i64 1, i1 false)
  %23 = getelementptr inbounds %"struct.Luau::CodeGen::X64::RegisterX64", ptr %12, i32 0, i32 0
  %24 = load i8, ptr %23, align 1
  call void @_ZN4Luau7CodeGen3X6410OperandX64C2ENS1_11RegisterX64E(ptr noundef nonnull align 4 dereferenceable(8) %11, i8 %24)
  %25 = load i64, ptr %9, align 4
  %26 = load i64, ptr %11, align 4
  call void @_ZN4Luau7CodeGen3X6418AssemblyBuilderX643cmpENS1_10OperandX64ES3_(ptr noundef nonnull align 8 dereferenceable(252) %20, i64 %25, i64 %26)
  %27 = load ptr, ptr %4, align 8
  call void @_ZN4Luau7CodeGen3X6418AssemblyBuilderX643jccENS0_12ConditionX64ERNS0_5LabelE(ptr noundef nonnull align 8 dereferenceable(252) %27, i8 noundef zeroext 8, ptr noundef nonnull align 4 dereferenceable(8) %5)
  ret void
}

; Function Attrs: mustprogress uwtable
define internal void @_ZZN12_GLOBAL__N_121DOCTEST_ANON_CLASS_451fEvENUlRN4Luau7CodeGen3X6418AssemblyBuilderX64EE_8__invokeES5_(ptr noundef nonnull align 8 dereferenceable(252) %0) #4 align 2 {
  %2 = alloca ptr, align 8
  %3 = alloca %class.anon.403, align 1
  store ptr %0, ptr %2, align 8
  %4 = load ptr, ptr %2, align 8
  call void @_ZZN12_GLOBAL__N_121DOCTEST_ANON_CLASS_451fEvENKUlRN4Luau7CodeGen3X6418AssemblyBuilderX64EE_clES5_(ptr noundef nonnull align 1 dereferenceable(1) %3, ptr noundef nonnull align 8 dereferenceable(252) %4)
  ret void
}